; Function Attrs: mustprogress uwtable
define void @_ZN4base20MakeAbsoluteFilePathERKNS_8FilePathE(ptr dead_on_unwind noalias writable sret(%"class.base::FilePath") align 8 %0, ptr noundef nonnull readonly align 8 captures(none) dereferenceable(32) %1) local_unnamed_addr #0 {
  %3 = alloca [4096 x i8], align 16
  call void @llvm.lifetime.start.p0(i64 4096, ptr nonnull %3) #24
  %4 = load ptr, ptr %1, align 8, !tbaa !3
  %5 = call ptr @realpath(ptr noundef %4, ptr noundef nonnull %3) #24
  %6 = icmp eq ptr %5, null
  br i1 %6, label %7, label %8

7:                                                ; preds = %2
  call void @_ZN4base8FilePathC1Ev(ptr noundef nonnull align 8 dereferenceable(32) %0)
  br label %10

8:                                                ; preds = %2
  %9 = call noundef i64 @strlen(ptr noundef nonnull dereferenceable(1) %3) #24
  call void @_ZN4base8FilePathC1ENS_16BasicStringPieceINSt7__cxx1112basic_stringIcSt11char_traitsIcESaIcEEEEE(ptr noundef nonnull align 8 dereferenceable(32) %0, ptr nonnull %3, i64 %9)
  br label %10

10:                                               ; preds = %8, %7
  call void @llvm.lifetime.end.p0(i64 4096, ptr nonnull %3) #24
  ret void
}